target datalayout = "e-m:e-p270:32:32-p271:32:32-p272:64:64-i64:64-i128:128-f80:128-n8:16:32:64-S128"
target triple = "x86_64-pc-linux-gnu"

%"class.casadi::SXElem" = type { ptr }

@_ZN6casadi13GlobalOptions25simplification_on_the_flyE = external global i8, align 1
@_ZN6casadi6SXElemC1ERKS0_ = unnamed_addr alias void (ptr, ptr), ptr @_ZN6casadi6SXElemC2ERKS0_
@_ZN6casadi6SXElemC1Ed = unnamed_addr alias void (ptr, double), ptr @_ZN6casadi6SXElemC2Ed
@_ZN6casadi6SXElemD1Ev = unnamed_addr alias void (ptr), ptr @_ZN6casadi6SXElemD2Ev

; Function Attrs: mustprogress uwtable
define linkonce_odr hidden void @_ZN6casadi17GenericExpressionINS_6SXElemEE3absERKS1_(ptr dead_on_unwind noalias writable sret(%"class.casadi::SXElem") align 8 %0, ptr noundef nonnull align 8 dereferenceable(8) %1) #5 comdat align 2 {
  %3 = alloca ptr, align 8
  %4 = alloca ptr, align 8
  store ptr %0, ptr %3, align 8
  store ptr %1, ptr %4, align 8
  %5 = load ptr, ptr %4, align 8
  call void @_ZN6casadi6SXElem5unaryExRKS0_(ptr dead_on_unwind writable sret(%"class.casadi::SXElem") align 8 %0, i64 noundef 29, ptr noundef nonnull align 8 dereferenceable(8) %5)
  ret void
}

; Function Attrs: mustprogress uwtable
define linkonce_odr hidden void @_ZN6casadi4fabsERKNS_6SXElemE(ptr dead_on_unwind noalias writable sret(%"class.casadi::SXElem") align 8 %0, ptr noundef nonnull align 8 dereferenceable(8) %1) #5 comdat {
  %3 = alloca ptr, align 8
  %4 = alloca ptr, align 8
  store ptr %0, ptr %3, align 8
  store ptr %1, ptr %4, align 8
  %5 = load ptr, ptr %4, align 8
  call void @_ZN6casadi17GenericExpressionINS_6SXElemEE3absERKS1_(ptr dead_on_unwind writable sret(%"class.casadi::SXElem") align 8 %0, ptr noundef nonnull align 8 dereferenceable(8) %5)
  ret void
}

; Function Attrs: mustprogress uwtable
define noundef zeroext i1 @_ZNK6casadi6SXElem7is_zeroEv(ptr noundef nonnull align 8 dereferenceable(8) %0) #5 align 2 {
  %2 = alloca ptr, align 8
  store ptr %0, ptr %2, align 8
  %3 = load ptr, ptr %2, align 8
  %4 = getelementptr inbounds %"class.casadi::SXElem", ptr %3, i32 0, i32 0
  %5 = load ptr, ptr %4, align 8
  %6 = load ptr, ptr %5, align 8
  %7 = getelementptr inbounds ptr, ptr %6, i64 5
  %8 = load ptr, ptr %7, align 8
  %9 = call noundef zeroext i1 %8(ptr noundef nonnull align 8 dereferenceable(16) %5)
  ret i1 %9
}

; Function Attrs: mustprogress uwtable
define linkonce_odr hidden void @_ZN6casadi17GenericExpressionINS_6SXElemEE2sqERKS1_(ptr dead_on_unwind noalias writable sret(%"class.casadi::SXElem") align 8 %0, ptr noundef nonnull align 8 dereferenceable(8) %1) #5 comdat align 2 {
  %3 = alloca ptr, align 8
  %4 = alloca ptr, align 8
  store ptr %0, ptr %3, align 8
  store ptr %1, ptr %4, align 8
  %5 = load ptr, ptr %4, align 8
  call void @_ZN6casadi6SXElem5unaryExRKS0_(ptr dead_on_unwind writable sret(%"class.casadi::SXElem") align 8 %0, i64 noundef 11, ptr noundef nonnull align 8 dereferenceable(8) %5)
  ret void
}

; Function Attrs: mustprogress uwtable
define noundef zeroext i1 @_ZNK6casadi6SXElem5is_opEx(ptr noundef nonnull align 8 dereferenceable(8) %0, i64 noundef %1) #5 align 2 {
  %3 = alloca ptr, align 8
  %4 = alloca i64, align 8
  store ptr %0, ptr %3, align 8
  store i64 %1, ptr %4, align 8
  %5 = load ptr, ptr %3, align 8
  %6 = getelementptr inbounds %"class.casadi::SXElem", ptr %5, i32 0, i32 0
  %7 = load ptr, ptr %6, align 8
  %8 = load i64, ptr %4, align 8
  %9 = load ptr, ptr %7, align 8
  %10 = getelementptr inbounds ptr, ptr %9, i64 6
  %11 = load ptr, ptr %10, align 8
  %12 = call noundef zeroext i1 %11(ptr noundef nonnull align 8 dereferenceable(16) %7, i64 noundef %8)
  ret i1 %12
}

; Function Attrs: mustprogress uwtable
define void @_ZN6casadi6SXElem5unaryExRKS0_(ptr dead_on_unwind noalias writable sret(%"class.casadi::SXElem") align 8 %0, i64 noundef %1, ptr noundef nonnull align 8 dereferenceable(8) %2) #5 align 2 personality ptr @__gxx_personality_v0 {
  %4 = alloca ptr, align 8
  %5 = alloca i64, align 8
  %6 = alloca ptr, align 8
  %7 = alloca %"class.casadi::SXElem", align 8
  %8 = alloca ptr, align 8
  %9 = alloca i32, align 4
  %10 = alloca %"class.casadi::SXElem", align 8
  store ptr %0, ptr %4, align 8
  store i64 %1, ptr %5, align 8
  store ptr %2, ptr %6, align 8
  %11 = load i8, ptr @_ZN6casadi13GlobalOptions25simplification_on_the_flyE, align 1
  %12 = trunc i8 %11 to i1
  br i1 %12, label %13, label %69

13:                                               ; preds = %3
  %14 = load i64, ptr %5, align 8
  switch i64 %14, label %68 [
    i64 11, label %15
    i64 29, label %32
    i64 23, label %41
    i64 37, label %47
    i64 39, label %47
    i64 42, label %47
    i64 41, label %47
    i64 40, label %47
    i64 38, label %52
    i64 10, label %57
  ]

15:                                               ; preds = %13
  %16 = load ptr, ptr %6, align 8
  %17 = call noundef zeroext i1 @_ZNK6casadi6SXElem5is_opEx(ptr noundef nonnull align 8 dereferenceable(8) %16, i64 noundef 10)
  br i1 %17, label %18, label %20

18:                                               ; preds = %15
  %19 = load ptr, ptr %6, align 8
  call void @_ZNK6casadi6SXElem3depEx(ptr dead_on_unwind writable sret(%"class.casadi::SXElem") align 8 %0, ptr noundef nonnull align 8 dereferenceable(8) %19, i64 noundef 0)
  br label %74

20:                                               ; preds = %15
  %21 = load ptr, ptr %6, align 8
  %22 = call noundef zeroext i1 @_ZNK6casadi6SXElem5is_opEx(ptr noundef nonnull align 8 dereferenceable(8) %21, i64 noundef 5)
  br i1 %22, label %23, label %30

23:                                               ; preds = %20
  %24 = load ptr, ptr %6, align 8
  call void @_ZNK6casadi6SXElem3depEx(ptr dead_on_unwind writable sret(%"class.casadi::SXElem") align 8 %7, ptr noundef nonnull align 8 dereferenceable(8) %24, i64 noundef 0)
  invoke void @_ZN6casadi17GenericExpressionINS_6SXElemEE2sqERKS1_(ptr dead_on_unwind writable sret(%"class.casadi::SXElem") align 8 %0, ptr noundef nonnull align 8 dereferenceable(8) %7)
          to label %25 unwind label %26

25:                                               ; preds = %23
  call void @_ZN6casadi6SXElemD1Ev(ptr noundef nonnull align 8 dereferenceable(8) %7) #3
  br label %74

26:                                               ; preds = %23
  %27 = landingpad { ptr, i32 }
          cleanup
  %28 = extractvalue { ptr, i32 } %27, 0
  store ptr %28, ptr %8, align 8
  %29 = extractvalue { ptr, i32 } %27, 1
  store i32 %29, ptr %9, align 4
  call void @_ZN6casadi6SXElemD1Ev(ptr noundef nonnull align 8 dereferenceable(8) %7) #3
  br label %75

30:                                               ; preds = %20
  br label %31

31:                                               ; preds = %30
  br label %68

32:                                               ; preds = %13
  %33 = load ptr, ptr %6, align 8
  %34 = call noundef zeroext i1 @_ZNK6casadi6SXElem5is_opEx(ptr noundef nonnull align 8 dereferenceable(8) %33, i64 noundef 29)
  br i1 %34, label %38, label %35

35:                                               ; preds = %32
  %36 = load ptr, ptr %6, align 8
  %37 = call noundef zeroext i1 @_ZNK6casadi6SXElem5is_opEx(ptr noundef nonnull align 8 dereferenceable(8) %36, i64 noundef 11)
  br i1 %37, label %38, label %40

38:                                               ; preds = %35, %32
  %39 = load ptr, ptr %6, align 8
  call void @_ZN6casadi6SXElemC1ERKS0_(ptr noundef nonnull align 8 dereferenceable(8) %0, ptr noundef nonnull align 8 dereferenceable(8) %39)
  br label %74

40:                                               ; preds = %35
  br label %68

41:                                               ; preds = %13
  %42 = load ptr, ptr %6, align 8
  %43 = call noundef zeroext i1 @_ZNK6casadi6SXElem5is_opEx(ptr noundef nonnull align 8 dereferenceable(8) %42, i64 noundef 23)
  br i1 %43, label %44, label %46

44:                                               ; preds = %41
  %45 = load ptr, ptr %6, align 8
  call void @_ZNK6casadi6SXElem3depEx(ptr dead_on_unwind writable sret(%"class.casadi::SXElem") align 8 %0, ptr noundef nonnull align 8 dereferenceable(8) %45, i64 noundef 0)
  br label %74

46:                                               ; preds = %41
  br label %68

47:                                               ; preds = %13, %13, %13, %13, %13
  %48 = load ptr, ptr %6, align 8
  %49 = call noundef zeroext i1 @_ZNK6casadi6SXElem7is_zeroEv(ptr noundef nonnull align 8 dereferenceable(8) %48)
  br i1 %49, label %50, label %51

50:                                               ; preds = %47
  call void @_ZN6casadi6SXElemC1Ed(ptr noundef nonnull align 8 dereferenceable(8) %0, double noundef 0.000000e+00)
  br label %74

51:                                               ; preds = %47
  br label %68

52:                                               ; preds = %13
  %53 = load ptr, ptr %6, align 8
  %54 = call noundef zeroext i1 @_ZNK6casadi6SXElem7is_zeroEv(ptr noundef nonnull align 8 dereferenceable(8) %53)
  br i1 %54, label %55, label %56

55:                                               ; preds = %52
  call void @_ZN6casadi6SXElemC1Ed(ptr noundef nonnull align 8 dereferenceable(8) %0, double noundef 1.000000e+00)
  br label %74

56:                                               ; preds = %52
  br label %68

57:                                               ; preds = %13
  %58 = load ptr, ptr %6, align 8
  %59 = call noundef zeroext i1 @_ZNK6casadi6SXElem5is_opEx(ptr noundef nonnull align 8 dereferenceable(8) %58, i64 noundef 11)
  br i1 %59, label %60, label %67

60:                                               ; preds = %57
  %61 = load ptr, ptr %6, align 8
  call void @_ZNK6casadi6SXElem3depEx(ptr dead_on_unwind writable sret(%"class.casadi::SXElem") align 8 %10, ptr noundef nonnull align 8 dereferenceable(8) %61, i64 noundef 0)
  invoke void @_ZN6casadi4fabsERKNS_6SXElemE(ptr dead_on_unwind writable sret(%"class.casadi::SXElem") align 8 %0, ptr noundef nonnull align 8 dereferenceable(8) %10)
          to label %62 unwind label %63

62:                                               ; preds = %60
  call void @_ZN6casadi6SXElemD1Ev(ptr noundef nonnull align 8 dereferenceable(8) %10) #3
  br label %74

63:                                               ; preds = %60
  %64 = landingpad { ptr, i32 }
          cleanup
  %65 = extractvalue { ptr, i32 } %64, 0
  store ptr %65, ptr %8, align 8
  %66 = extractvalue { ptr, i32 } %64, 1
  store i32 %66, ptr %9, align 4
  call void @_ZN6casadi6SXElemD1Ev(ptr noundef nonnull align 8 dereferenceable(8) %10) #3
  br label %75

67:                                               ; preds = %57
  br label %68

68:                                               ; preds = %67, %56, %51, %46, %40, %31, %13
  br label %69

69:                                               ; preds = %68, %3
  %70 = load i64, ptr %5, align 8
  %71 = trunc i64 %70 to i32
  %72 = trunc i32 %71 to i8
  %73 = load ptr, ptr %6, align 8
  call void @_ZN6casadi7UnarySX6createEhRKNS_6SXElemE(ptr dead_on_unwind writable sret(%"class.casadi::SXElem") align 8 %0, i8 noundef zeroext %72, ptr noundef nonnull align 8 dereferenceable(8) %73)
  br label %74

74:                                               ; preds = %69, %62, %55, %50, %44, %38, %25, %18
  ret void

75:                                               ; preds = %63, %26
  %76 = load ptr, ptr %8, align 8
  %77 = load i32, ptr %9, align 4
  %78 = insertvalue { ptr, i32 } poison, ptr %76, 0
  %79 = insertvalue { ptr, i32 } %78, i32 %77, 1
  resume { ptr, i32 } %79
}