; Function Attrs: mustprogress uwtable
define void @_ZN6casadi6SXElem5unaryExRKS0_(ptr dead_on_unwind noalias writable sret(%"class.casadi::SXElem") align 8 %0, i64 noundef %1, ptr noundef nonnull align 8 dereferenceable(8) %2) local_unnamed_addr #6 align 2 personality ptr @__gxx_personality_v0 {
  %4 = alloca %"class.casadi::SXElem", align 8
  %5 = alloca %"class.casadi::SXElem", align 8
  %6 = load i8, ptr @_ZN6casadi13GlobalOptions25simplification_on_the_flyE, align 1
  %7 = and i8 %6, 1
  %.not = icmp eq i8 %7, 0
  br i1 %.not, label %97, label %8

8:                                                ; preds = %3
  switch i64 %1, label %97 [
    i64 11, label %9
    i64 29, label %28
    i64 23, label %41
    i64 37, label %53
    i64 39, label %53
    i64 42, label %53
    i64 41, label %53
    i64 40, label %53
    i64 38, label %60
    i64 10, label %67
  ]

9:                                                ; preds = %8
  %10 = load ptr, ptr %2, align 8
  %11 = load ptr, ptr %10, align 8
  %12 = getelementptr inbounds i8, ptr %11, i64 48
  %13 = load ptr, ptr %12, align 8
  %14 = tail call noundef zeroext i1 %13(ptr noundef nonnull align 8 dereferenceable(16) %10, i64 noundef 10)
  %15 = load ptr, ptr %2, align 8
  %16 = load ptr, ptr %15, align 8
  br i1 %14, label %17, label %21

17:                                               ; preds = %9
  %18 = getelementptr inbounds i8, ptr %16, i64 168
  %19 = load ptr, ptr %18, align 8, !noalias !58
  %20 = tail call noundef nonnull align 8 dereferenceable(8) ptr %19(ptr noundef nonnull align 8 dereferenceable(16) %15, i64 noundef 0), !noalias !58
  tail call void @_ZN6casadi6SXElemC1ERKS0_(ptr noundef nonnull align 8 dereferenceable(8) %0, ptr noundef nonnull align 8 dereferenceable(8) %20)
  br label %99

21:                                               ; preds = %9
  %22 = getelementptr inbounds i8, ptr %16, i64 48
  %23 = load ptr, ptr %22, align 8
  %24 = tail call noundef zeroext i1 %23(ptr noundef nonnull align 8 dereferenceable(16) %15, i64 noundef 5)
  br i1 %24, label %25, label %97

25:                                               ; preds = %21
  call void @_ZNK6casadi6SXElem3depEx(ptr dead_on_unwind nonnull writable sret(%"class.casadi::SXElem") align 8 %4, ptr noundef nonnull align 8 dereferenceable(8) %2, i64 noundef 0)
  invoke void @_ZN6casadi6SXElem5unaryExRKS0_(ptr dead_on_unwind writable sret(%"class.casadi::SXElem") align 8 %0, i64 noundef 11, ptr noundef nonnull align 8 dereferenceable(8) %4)
          to label %_ZN6casadi17GenericExpressionINS_6SXElemEE2sqERKS1_.exit unwind label %26

_ZN6casadi17GenericExpressionINS_6SXElemEE2sqERKS1_.exit: ; preds = %25
  call void @_ZN6casadi6SXElemD1Ev(ptr noundef nonnull align 8 dereferenceable(8) %4) #25
  br label %99

26:                                               ; preds = %25
  %27 = landingpad { ptr, i32 }
          cleanup
  br label %100

28:                                               ; preds = %8
  %29 = load ptr, ptr %2, align 8
  %30 = load ptr, ptr %29, align 8
  %31 = getelementptr inbounds i8, ptr %30, i64 48
  %32 = load ptr, ptr %31, align 8
  %33 = tail call noundef zeroext i1 %32(ptr noundef nonnull align 8 dereferenceable(16) %29, i64 noundef 29)
  br i1 %33, label %40, label %34

34:                                               ; preds = %28
  %35 = load ptr, ptr %2, align 8
  %36 = load ptr, ptr %35, align 8
  %37 = getelementptr inbounds i8, ptr %36, i64 48
  %38 = load ptr, ptr %37, align 8
  %39 = tail call noundef zeroext i1 %38(ptr noundef nonnull align 8 dereferenceable(16) %35, i64 noundef 11)
  br i1 %39, label %40, label %97

40:                                               ; preds = %34, %28
  tail call void @_ZN6casadi6SXElemC1ERKS0_(ptr noundef nonnull align 8 dereferenceable(8) %0, ptr noundef nonnull align 8 dereferenceable(8) %2)
  br label %99

41:                                               ; preds = %8
  %42 = load ptr, ptr %2, align 8
  %43 = load ptr, ptr %42, align 8
  %44 = getelementptr inbounds i8, ptr %43, i64 48
  %45 = load ptr, ptr %44, align 8
  %46 = tail call noundef zeroext i1 %45(ptr noundef nonnull align 8 dereferenceable(16) %42, i64 noundef 23)
  br i1 %46, label %47, label %97

47:                                               ; preds = %41
  %48 = load ptr, ptr %2, align 8, !noalias !61
  %49 = load ptr, ptr %48, align 8, !noalias !61
  %50 = getelementptr inbounds i8, ptr %49, i64 168
  %51 = load ptr, ptr %50, align 8, !noalias !61
  %52 = tail call noundef nonnull align 8 dereferenceable(8) ptr %51(ptr noundef nonnull align 8 dereferenceable(16) %48, i64 noundef 0), !noalias !61
  tail call void @_ZN6casadi6SXElemC1ERKS0_(ptr noundef nonnull align 8 dereferenceable(8) %0, ptr noundef nonnull align 8 dereferenceable(8) %52)
  br label %99

53:                                               ; preds = %8, %8, %8, %8, %8
  %54 = load ptr, ptr %2, align 8
  %55 = load ptr, ptr %54, align 8
  %56 = getelementptr inbounds i8, ptr %55, i64 40
  %57 = load ptr, ptr %56, align 8
  %58 = tail call noundef zeroext i1 %57(ptr noundef nonnull align 8 dereferenceable(16) %54)
  br i1 %58, label %59, label %97

59:                                               ; preds = %53
  tail call void @_ZN6casadi6SXElemC1Ed(ptr noundef nonnull align 8 dereferenceable(8) %0, double noundef 0.000000e+00)
  br label %99

60:                                               ; preds = %8
  %61 = load ptr, ptr %2, align 8
  %62 = load ptr, ptr %61, align 8
  %63 = getelementptr inbounds i8, ptr %62, i64 40
  %64 = load ptr, ptr %63, align 8
  %65 = tail call noundef zeroext i1 %64(ptr noundef nonnull align 8 dereferenceable(16) %61)
  br i1 %65, label %66, label %97

66:                                               ; preds = %60
  tail call void @_ZN6casadi6SXElemC1Ed(ptr noundef nonnull align 8 dereferenceable(8) %0, double noundef 1.000000e+00)
  br label %99

67:                                               ; preds = %8
  %68 = load ptr, ptr %2, align 8
  %69 = load ptr, ptr %68, align 8
  %70 = getelementptr inbounds i8, ptr %69, i64 48
  %71 = load ptr, ptr %70, align 8
  %72 = tail call noundef zeroext i1 %71(ptr noundef nonnull align 8 dereferenceable(16) %68, i64 noundef 11)
  br i1 %72, label %73, label %97

73:                                               ; preds = %67
  %74 = load ptr, ptr %2, align 8, !noalias !64
  %75 = load ptr, ptr %74, align 8, !noalias !64
  %76 = getelementptr inbounds i8, ptr %75, i64 168
  %77 = load ptr, ptr %76, align 8, !noalias !64
  %78 = tail call noundef nonnull align 8 dereferenceable(8) ptr %77(ptr noundef nonnull align 8 dereferenceable(16) %74, i64 noundef 0), !noalias !64
  call void @_ZN6casadi6SXElemC1ERKS0_(ptr noundef nonnull align 8 dereferenceable(8) %5, ptr noundef nonnull align 8 dereferenceable(8) %78)
  %79 = load i8, ptr @_ZN6casadi13GlobalOptions25simplification_on_the_flyE, align 1, !noalias !67
  %80 = and i8 %79, 1
  %.not.i.i = icmp eq i8 %80, 0
  br i1 %.not.i.i, label %94, label %81

81:                                               ; preds = %73
  %82 = load ptr, ptr %5, align 8, !noalias !67
  %83 = load ptr, ptr %82, align 8, !noalias !67
  %84 = getelementptr inbounds i8, ptr %83, i64 48
  %85 = load ptr, ptr %84, align 8, !noalias !67
  %86 = invoke noundef zeroext i1 %85(ptr noundef nonnull align 8 dereferenceable(16) %82, i64 noundef 29)
          to label %.noexc unwind label %95

.noexc:                                           ; preds = %81
  br i1 %86, label %93, label %87

87:                                               ; preds = %.noexc
  %88 = load ptr, ptr %5, align 8, !noalias !67
  %89 = load ptr, ptr %88, align 8, !noalias !67
  %90 = getelementptr inbounds i8, ptr %89, i64 48
  %91 = load ptr, ptr %90, align 8, !noalias !67
  %92 = invoke noundef zeroext i1 %91(ptr noundef nonnull align 8 dereferenceable(16) %88, i64 noundef 11)
          to label %.noexc19 unwind label %95

.noexc19:                                         ; preds = %87
  br i1 %92, label %93, label %94

93:                                               ; preds = %.noexc19, %.noexc
  invoke void @_ZN6casadi6SXElemC1ERKS0_(ptr noundef nonnull align 8 dereferenceable(8) %0, ptr noundef nonnull align 8 dereferenceable(8) %5)
          to label %_ZN6casadi4fabsERKNS_6SXElemE.exit unwind label %95

94:                                               ; preds = %.noexc19, %73
  invoke void @_ZN6casadi7UnarySX6createEhRKNS_6SXElemE(ptr dead_on_unwind writable sret(%"class.casadi::SXElem") align 8 %0, i8 noundef zeroext 29, ptr noundef nonnull align 8 dereferenceable(8) %5)
          to label %_ZN6casadi4fabsERKNS_6SXElemE.exit unwind label %95

_ZN6casadi4fabsERKNS_6SXElemE.exit:               ; preds = %94, %93
  call void @_ZN6casadi6SXElemD1Ev(ptr noundef nonnull align 8 dereferenceable(8) %5) #25
  br label %99

95:                                               ; preds = %94, %93, %87, %81
  %96 = landingpad { ptr, i32 }
          cleanup
  br label %100

97:                                               ; preds = %8, %21, %34, %41, %53, %60, %67, %3
  %98 = trunc i64 %1 to i8
  tail call void @_ZN6casadi7UnarySX6createEhRKNS_6SXElemE(ptr dead_on_unwind writable sret(%"class.casadi::SXElem") align 8 %0, i8 noundef zeroext %98, ptr noundef nonnull align 8 dereferenceable(8) %2)
  br label %99

99:                                               ; preds = %97, %_ZN6casadi4fabsERKNS_6SXElemE.exit, %66, %59, %47, %40, %_ZN6casadi17GenericExpressionINS_6SXElemEE2sqERKS1_.exit, %17
  ret void

100:                                              ; preds = %95, %26
  %.sink = phi ptr [ %5, %95 ], [ %4, %26 ]
  %.pn = phi { ptr, i32 } [ %96, %95 ], [ %27, %26 ]
  call void @_ZN6casadi6SXElemD1Ev(ptr noundef nonnull align 8 dereferenceable(8) %.sink) #25
  resume { ptr, i32 } %.pn
}